target datalayout = "e-m:e-p270:32:32-p271:32:32-p272:64:64-i64:64-i128:128-f80:128-n8:16:32:64-S128"
target triple = "x86_64-pc-linux-gnu"

%"class.llvm::CodeViewContext" = type <{ ptr, %"class.llvm::StringMap", ptr, i8, [7 x i8], %"class.llvm::SmallVector", %"class.std::map", %"class.std::vector", %"class.std::vector.3", i8, [7 x i8] }>
%"class.llvm::StringMap" = type { %"class.llvm::StringMapImpl" }
%"class.llvm::StringMapImpl" = type { ptr, i32, i32, i32, i32 }
%"class.llvm::SmallVector" = type { %"class.llvm::SmallVectorImpl", %"struct.llvm::SmallVectorStorage" }
%"class.llvm::SmallVectorImpl" = type { %"class.llvm::SmallVectorTemplateBase" }
%"class.llvm::SmallVectorTemplateBase" = type { %"class.llvm::SmallVectorTemplateCommon" }
%"class.llvm::SmallVectorTemplateCommon" = type { %"class.llvm::SmallVectorBase" }
%"class.llvm::SmallVectorBase" = type { ptr, i32, i32 }
%"struct.llvm::SmallVectorStorage" = type { [128 x i8] }
%"class.std::map" = type { %"class.std::_Rb_tree" }
%"class.std::_Rb_tree" = type { %"struct.std::_Rb_tree<unsigned int, std::pair<const unsigned int, std::pair<unsigned long, unsigned long>>, std::_Select1st<std::pair<const unsigned int, std::pair<unsigned long, unsigned long>>>, std::less<unsigned int>>::_Rb_tree_impl" }
%"struct.std::_Rb_tree<unsigned int, std::pair<const unsigned int, std::pair<unsigned long, unsigned long>>, std::_Select1st<std::pair<const unsigned int, std::pair<unsigned long, unsigned long>>>, std::less<unsigned int>>::_Rb_tree_impl" = type { [8 x i8], %"struct.std::_Rb_tree_header" }
%"struct.std::_Rb_tree_header" = type { %"struct.std::_Rb_tree_node_base", i64 }
%"struct.std::_Rb_tree_node_base" = type { i32, ptr, ptr, ptr }
%"class.std::vector" = type { %"struct.std::_Vector_base" }
%"struct.std::_Vector_base" = type { %"struct.std::_Vector_base<llvm::MCCVLoc, std::allocator<llvm::MCCVLoc>>::_Vector_impl" }
%"struct.std::_Vector_base<llvm::MCCVLoc, std::allocator<llvm::MCCVLoc>>::_Vector_impl" = type { %"struct.std::_Vector_base<llvm::MCCVLoc, std::allocator<llvm::MCCVLoc>>::_Vector_impl_data" }
%"struct.std::_Vector_base<llvm::MCCVLoc, std::allocator<llvm::MCCVLoc>>::_Vector_impl_data" = type { ptr, ptr, ptr }
%"class.std::vector.3" = type { %"struct.std::_Vector_base.4" }
%"struct.std::_Vector_base.4" = type { %"struct.std::_Vector_base<llvm::MCCVFunctionInfo, std::allocator<llvm::MCCVFunctionInfo>>::_Vector_impl" }
%"struct.std::_Vector_base<llvm::MCCVFunctionInfo, std::allocator<llvm::MCCVFunctionInfo>>::_Vector_impl" = type { %"struct.std::_Vector_base<llvm::MCCVFunctionInfo, std::allocator<llvm::MCCVFunctionInfo>>::_Vector_impl_data" }
%"struct.std::_Vector_base<llvm::MCCVFunctionInfo, std::allocator<llvm::MCCVFunctionInfo>>::_Vector_impl_data" = type { ptr, ptr, ptr }
%"class.llvm::StringRef" = type { ptr, i64 }
%"class.llvm::StringMapIterator" = type { %"class.llvm::StringMapIterBase" }
%"class.llvm::StringMapIterBase" = type { ptr }
%"class.llvm::iterator_facade_base<llvm::StringMapIterator<unsigned int>, std::forward_iterator_tag, llvm::StringMapEntry<unsigned int>>::PointerProxy" = type { ptr }
%"class.llvm::StringMapEntryStorage" = type <{ %"class.llvm::StringMapEntryBase", i32, [4 x i8] }>
%"class.llvm::StringMapEntryBase" = type { i64 }

; Function Attrs: mustprogress nounwind uwtable
define linkonce_odr hidden noundef ptr @_ZN4llvm13StringMapImpl15getTombstoneValEv() #0 comdat align 2 {
  ret ptr inttoptr (i64 -8 to ptr)
}

; Function Attrs: mustprogress nounwind uwtable
define linkonce_odr hidden void @_ZN4llvm17StringMapIterBaseINS_17StringMapIteratorIjEENS_14StringMapEntryIjEEE23AdvancePastEmptyBucketsEv(ptr noundef nonnull align 8 dereferenceable(8) %0) #0 comdat align 2 {
  %2 = alloca ptr, align 8
  store ptr %0, ptr %2, align 8
  %3 = load ptr, ptr %2, align 8
  br label %4

4:                                                ; preds = %17, %1
  %5 = getelementptr inbounds nuw %"class.llvm::StringMapIterBase", ptr %3, i32 0, i32 0
  %6 = load ptr, ptr %5, align 8
  %7 = load ptr, ptr %6, align 8
  %8 = icmp eq ptr %7, null
  br i1 %8, label %15, label %9

9:                                                ; preds = %4
  %10 = getelementptr inbounds nuw %"class.llvm::StringMapIterBase", ptr %3, i32 0, i32 0
  %11 = load ptr, ptr %10, align 8
  %12 = load ptr, ptr %11, align 8
  %13 = call noundef ptr @_ZN4llvm13StringMapImpl15getTombstoneValEv()
  %14 = icmp eq ptr %12, %13
  br label %15

15:                                               ; preds = %9, %4
  %16 = phi i1 [ true, %4 ], [ %14, %9 ]
  br i1 %16, label %17, label %21

17:                                               ; preds = %15
  %18 = getelementptr inbounds nuw %"class.llvm::StringMapIterBase", ptr %3, i32 0, i32 0
  %19 = load ptr, ptr %18, align 8
  %20 = getelementptr inbounds ptr, ptr %19, i32 1
  store ptr %20, ptr %18, align 8
  br label %4, !llvm.loop !24

21:                                               ; preds = %15
  ret void
}

; Function Attrs: mustprogress nounwind uwtable
define linkonce_odr hidden void @_ZN4llvm17StringMapIterBaseINS_17StringMapIteratorIjEENS_14StringMapEntryIjEEEC2EPPNS_18StringMapEntryBaseEb(ptr noundef nonnull align 8 dereferenceable(8) %0, ptr noundef %1, i1 noundef zeroext %2) unnamed_addr #0 comdat align 2 {
  %4 = alloca ptr, align 8
  %5 = alloca ptr, align 8
  %6 = alloca i8, align 1
  store ptr %0, ptr %4, align 8
  store ptr %1, ptr %5, align 8
  %7 = zext i1 %2 to i8
  store i8 %7, ptr %6, align 1
  %8 = load ptr, ptr %4, align 8
  %9 = getelementptr inbounds nuw %"class.llvm::StringMapIterBase", ptr %8, i32 0, i32 0
  %10 = load ptr, ptr %5, align 8
  store ptr %10, ptr %9, align 8
  %11 = load i8, ptr %6, align 1
  %12 = trunc i8 %11 to i1
  br i1 %12, label %14, label %13

13:                                               ; preds = %3
  call void @_ZN4llvm17StringMapIterBaseINS_17StringMapIteratorIjEENS_14StringMapEntryIjEEE23AdvancePastEmptyBucketsEv(ptr noundef nonnull align 8 dereferenceable(8) %8)
  br label %14

14:                                               ; preds = %13, %3
  ret void
}

; Function Attrs: mustprogress nounwind uwtable
define linkonce_odr hidden void @_ZN4llvm17StringMapIteratorIjEC2EPPNS_18StringMapEntryBaseEb(ptr noundef nonnull align 8 dereferenceable(8) %0, ptr noundef %1, i1 noundef zeroext %2) unnamed_addr #0 comdat align 2 {
  %4 = alloca ptr, align 8
  %5 = alloca ptr, align 8
  %6 = alloca i8, align 1
  store ptr %0, ptr %4, align 8
  store ptr %1, ptr %5, align 8
  %7 = zext i1 %2 to i8
  store i8 %7, ptr %6, align 1
  %8 = load ptr, ptr %4, align 8
  %9 = load ptr, ptr %5, align 8
  %10 = load i8, ptr %6, align 1
  %11 = trunc i8 %10 to i1
  call void @_ZN4llvm17StringMapIterBaseINS_17StringMapIteratorIjEENS_14StringMapEntryIjEEEC2EPPNS_18StringMapEntryBaseEb(ptr noundef nonnull align 8 dereferenceable(8) %8, ptr noundef %9, i1 noundef zeroext %11)
  ret void
}

; Function Attrs: mustprogress nounwind uwtable
define linkonce_odr hidden ptr @_ZN4llvm9StringMapIjNS_15MallocAllocatorEE3endEv(ptr noundef nonnull align 8 dereferenceable(24) %0) #0 comdat align 2 {
  %2 = alloca %"class.llvm::StringMapIterator", align 8
  %3 = alloca ptr, align 8
  store ptr %0, ptr %3, align 8
  %4 = load ptr, ptr %3, align 8
  %5 = getelementptr inbounds nuw %"class.llvm::StringMapImpl", ptr %4, i32 0, i32 0
  %6 = load ptr, ptr %5, align 8
  %7 = getelementptr inbounds nuw %"class.llvm::StringMapImpl", ptr %4, i32 0, i32 1
  %8 = load i32, ptr %7, align 8
  %9 = zext i32 %8 to i64
  %10 = getelementptr inbounds ptr, ptr %6, i64 %9
  call void @_ZN4llvm17StringMapIteratorIjEC2EPPNS_18StringMapEntryBaseEb(ptr noundef nonnull align 8 dereferenceable(8) %2, ptr noundef %10, i1 noundef zeroext true)
  %11 = getelementptr inbounds nuw %"class.llvm::StringMapIterator", ptr %2, i32 0, i32 0
  %12 = getelementptr inbounds nuw %"class.llvm::StringMapIterBase", ptr %11, i32 0, i32 0
  %13 = load ptr, ptr %12, align 8
  ret ptr %13
}

; Function Attrs: mustprogress nounwind uwtable
define linkonce_odr hidden void @_ZN4llvm20iterator_facade_baseINS_17StringMapIteratorIjEESt20forward_iterator_tagNS_14StringMapEntryIjEElPS5_RS5_E12PointerProxyC2IS7_EEOT_(ptr noundef nonnull align 8 dereferenceable(8) %0, ptr noundef nonnull align 8 dereferenceable(16) %1) unnamed_addr #0 comdat align 2 {
  %3 = alloca ptr, align 8
  %4 = alloca ptr, align 8
  store ptr %0, ptr %3, align 8
  store ptr %1, ptr %4, align 8
  %5 = load ptr, ptr %3, align 8
  %6 = getelementptr inbounds nuw %"class.llvm::iterator_facade_base<llvm::StringMapIterator<unsigned int>, std::forward_iterator_tag, llvm::StringMapEntry<unsigned int>>::PointerProxy", ptr %5, i32 0, i32 0
  %7 = load ptr, ptr %4, align 8
  store ptr %7, ptr %6, align 8
  ret void
}

; Function Attrs: mustprogress nounwind uwtable
define linkonce_odr hidden noundef nonnull align 8 dereferenceable(16) ptr @_ZNK4llvm17StringMapIteratorIjEdeEv(ptr noundef nonnull align 8 dereferenceable(8) %0) #0 comdat align 2 {
  %2 = alloca ptr, align 8
  store ptr %0, ptr %2, align 8
  %3 = load ptr, ptr %2, align 8
  %4 = getelementptr inbounds nuw %"class.llvm::StringMapIterBase", ptr %3, i32 0, i32 0
  %5 = load ptr, ptr %4, align 8
  %6 = load ptr, ptr %5, align 8
  ret ptr %6
}

; Function Attrs: mustprogress nounwind uwtable
define linkonce_odr hidden ptr @_ZN4llvm9StringMapIjNS_15MallocAllocatorEE4findENS_9StringRefEj(ptr noundef nonnull align 8 dereferenceable(24) %0, ptr %1, i64 %2, i32 noundef %3) #0 comdat align 2 {
  %5 = alloca %"class.llvm::StringMapIterator", align 8
  %6 = alloca %"class.llvm::StringRef", align 8
  %7 = alloca ptr, align 8
  %8 = alloca i32, align 4
  %9 = alloca i32, align 4
  %10 = alloca %"class.llvm::StringRef", align 8
  %11 = getelementptr inbounds nuw { ptr, i64 }, ptr %6, i32 0, i32 0
  store ptr %1, ptr %11, align 8
  %12 = getelementptr inbounds nuw { ptr, i64 }, ptr %6, i32 0, i32 1
  store i64 %2, ptr %12, align 8
  store ptr %0, ptr %7, align 8
  store i32 %3, ptr %8, align 4
  %13 = load ptr, ptr %7, align 8
  call void @llvm.memcpy.p0.p0.i64(ptr align 8 %10, ptr align 8 %6, i64 16, i1 false)
  %14 = load i32, ptr %8, align 4
  %15 = getelementptr inbounds nuw { ptr, i64 }, ptr %10, i32 0, i32 0
  %16 = load ptr, ptr %15, align 8
  %17 = getelementptr inbounds nuw { ptr, i64 }, ptr %10, i32 0, i32 1
  %18 = load i64, ptr %17, align 8
  %19 = call noundef i32 @_ZNK4llvm13StringMapImpl7FindKeyENS_9StringRefEj(ptr noundef nonnull align 8 dereferenceable(24) %13, ptr %16, i64 %18, i32 noundef %14)
  store i32 %19, ptr %9, align 4
  %20 = load i32, ptr %9, align 4
  %21 = icmp eq i32 %20, -1
  br i1 %21, label %22, label %26

22:                                               ; preds = %4
  %23 = call ptr @_ZN4llvm9StringMapIjNS_15MallocAllocatorEE3endEv(ptr noundef nonnull align 8 dereferenceable(24) %13)
  %24 = getelementptr inbounds nuw %"class.llvm::StringMapIterator", ptr %5, i32 0, i32 0
  %25 = getelementptr inbounds nuw %"class.llvm::StringMapIterBase", ptr %24, i32 0, i32 0
  store ptr %23, ptr %25, align 8
  br label %32

26:                                               ; preds = %4
  %27 = getelementptr inbounds nuw %"class.llvm::StringMapImpl", ptr %13, i32 0, i32 0
  %28 = load ptr, ptr %27, align 8
  %29 = load i32, ptr %9, align 4
  %30 = sext i32 %29 to i64
  %31 = getelementptr inbounds ptr, ptr %28, i64 %30
  call void @_ZN4llvm17StringMapIteratorIjEC2EPPNS_18StringMapEntryBaseEb(ptr noundef nonnull align 8 dereferenceable(8) %5, ptr noundef %31, i1 noundef zeroext true)
  br label %32

32:                                               ; preds = %26, %22
  %33 = getelementptr inbounds nuw %"class.llvm::StringMapIterator", ptr %5, i32 0, i32 0
  %34 = getelementptr inbounds nuw %"class.llvm::StringMapIterBase", ptr %33, i32 0, i32 0
  %35 = load ptr, ptr %34, align 8
  ret ptr %35
}

; Function Attrs: mustprogress nounwind uwtable
define linkonce_odr hidden noundef ptr @_ZNK4llvm20iterator_facade_baseINS_17StringMapIteratorIjEESt20forward_iterator_tagNS_14StringMapEntryIjEElPS5_RS5_E12PointerProxyptEv(ptr noundef nonnull align 8 dereferenceable(8) %0) #0 comdat align 2 {
  %2 = alloca ptr, align 8
  store ptr %0, ptr %2, align 8
  %3 = load ptr, ptr %2, align 8
  %4 = getelementptr inbounds nuw %"class.llvm::iterator_facade_base<llvm::StringMapIterator<unsigned int>, std::forward_iterator_tag, llvm::StringMapEntry<unsigned int>>::PointerProxy", ptr %3, i32 0, i32 0
  %5 = load ptr, ptr %4, align 8
  ret ptr %5
}

; Function Attrs: mustprogress nounwind uwtable
define linkonce_odr hidden ptr @_ZNK4llvm20iterator_facade_baseINS_17StringMapIteratorIjEESt20forward_iterator_tagNS_14StringMapEntryIjEElPS5_RS5_EptEv(ptr noundef nonnull align 1 dereferenceable(1) %0) #0 comdat align 2 {
  %2 = alloca %"class.llvm::iterator_facade_base<llvm::StringMapIterator<unsigned int>, std::forward_iterator_tag, llvm::StringMapEntry<unsigned int>>::PointerProxy", align 8
  %3 = alloca ptr, align 8
  store ptr %0, ptr %3, align 8
  %4 = load ptr, ptr %3, align 8
  %5 = call noundef nonnull align 8 dereferenceable(16) ptr @_ZNK4llvm17StringMapIteratorIjEdeEv(ptr noundef nonnull align 8 dereferenceable(8) %4)
  call void @_ZN4llvm20iterator_facade_baseINS_17StringMapIteratorIjEESt20forward_iterator_tagNS_14StringMapEntryIjEElPS5_RS5_E12PointerProxyC2IS7_EEOT_(ptr noundef nonnull align 8 dereferenceable(8) %2, ptr noundef nonnull align 8 dereferenceable(16) %5)
  %6 = getelementptr inbounds nuw %"class.llvm::iterator_facade_base<llvm::StringMapIterator<unsigned int>, std::forward_iterator_tag, llvm::StringMapEntry<unsigned int>>::PointerProxy", ptr %2, i32 0, i32 0
  %7 = load ptr, ptr %6, align 8
  ret ptr %7
}

; Function Attrs: mustprogress nounwind uwtable
define linkonce_odr hidden ptr @_ZN4llvm9StringMapIjNS_15MallocAllocatorEE4findENS_9StringRefE(ptr noundef nonnull align 8 dereferenceable(24) %0, ptr %1, i64 %2) #0 comdat align 2 {
  %4 = alloca %"class.llvm::StringMapIterator", align 8
  %5 = alloca %"class.llvm::StringRef", align 8
  %6 = alloca ptr, align 8
  %7 = alloca %"class.llvm::StringRef", align 8
  %8 = alloca %"class.llvm::StringRef", align 8
  %9 = getelementptr inbounds nuw { ptr, i64 }, ptr %5, i32 0, i32 0
  store ptr %1, ptr %9, align 8
  %10 = getelementptr inbounds nuw { ptr, i64 }, ptr %5, i32 0, i32 1
  store i64 %2, ptr %10, align 8
  store ptr %0, ptr %6, align 8
  %11 = load ptr, ptr %6, align 8
  call void @llvm.memcpy.p0.p0.i64(ptr align 8 %7, ptr align 8 %5, i64 16, i1 false)
  call void @llvm.memcpy.p0.p0.i64(ptr align 8 %8, ptr align 8 %5, i64 16, i1 false)
  %12 = getelementptr inbounds nuw { ptr, i64 }, ptr %8, i32 0, i32 0
  %13 = load ptr, ptr %12, align 8
  %14 = getelementptr inbounds nuw { ptr, i64 }, ptr %8, i32 0, i32 1
  %15 = load i64, ptr %14, align 8
  %16 = call noundef i32 @_ZN4llvm13StringMapImpl4hashENS_9StringRefE(ptr %13, i64 %15)
  %17 = getelementptr inbounds nuw { ptr, i64 }, ptr %7, i32 0, i32 0
  %18 = load ptr, ptr %17, align 8
  %19 = getelementptr inbounds nuw { ptr, i64 }, ptr %7, i32 0, i32 1
  %20 = load i64, ptr %19, align 8
  %21 = call ptr @_ZN4llvm9StringMapIjNS_15MallocAllocatorEE4findENS_9StringRefEj(ptr noundef nonnull align 8 dereferenceable(24) %11, ptr %18, i64 %20, i32 noundef %16)
  %22 = getelementptr inbounds nuw %"class.llvm::StringMapIterator", ptr %4, i32 0, i32 0
  %23 = getelementptr inbounds nuw %"class.llvm::StringMapIterBase", ptr %22, i32 0, i32 0
  store ptr %21, ptr %23, align 8
  %24 = getelementptr inbounds nuw %"class.llvm::StringMapIterator", ptr %4, i32 0, i32 0
  %25 = getelementptr inbounds nuw %"class.llvm::StringMapIterBase", ptr %24, i32 0, i32 0
  %26 = load ptr, ptr %25, align 8
  ret ptr %26
}

; Function Attrs: mustprogress nounwind uwtable
define linkonce_odr hidden noundef zeroext i1 @_ZNK4llvm9StringRef5emptyEv(ptr noundef nonnull align 8 dereferenceable(16) %0) #0 comdat align 2 {
  %2 = alloca ptr, align 8
  store ptr %0, ptr %2, align 8
  %3 = load ptr, ptr %2, align 8
  %4 = getelementptr inbounds nuw %"class.llvm::StringRef", ptr %3, i32 0, i32 1
  %5 = load i64, ptr %4, align 8
  %6 = icmp eq i64 %5, 0
  ret i1 %6
}

; Function Attrs: mustprogress nounwind uwtable
define dso_local noundef i32 @_ZN4llvm15CodeViewContext20getStringTableOffsetENS_9StringRefE(ptr noundef nonnull align 8 dereferenceable(289) %0, ptr %1, i64 %2) #0 align 2 {
  %4 = alloca i32, align 4
  %5 = alloca %"class.llvm::StringRef", align 8
  %6 = alloca ptr, align 8
  %7 = alloca %"class.llvm::StringMapIterator", align 8
  %8 = alloca %"class.llvm::StringRef", align 8
  %9 = alloca %"class.llvm::iterator_facade_base<llvm::StringMapIterator<unsigned int>, std::forward_iterator_tag, llvm::StringMapEntry<unsigned int>>::PointerProxy", align 8
  %10 = getelementptr inbounds nuw { ptr, i64 }, ptr %5, i32 0, i32 0
  store ptr %1, ptr %10, align 8
  %11 = getelementptr inbounds nuw { ptr, i64 }, ptr %5, i32 0, i32 1
  store i64 %2, ptr %11, align 8
  store ptr %0, ptr %6, align 8
  %12 = load ptr, ptr %6, align 8
  %13 = call noundef zeroext i1 @_ZNK4llvm9StringRef5emptyEv(ptr noundef nonnull align 8 dereferenceable(16) %5)
  br i1 %13, label %14, label %15

14:                                               ; preds = %3
  store i32 0, ptr %4, align 4
  br label %29

15:                                               ; preds = %3
  %16 = getelementptr inbounds nuw %"class.llvm::CodeViewContext", ptr %12, i32 0, i32 1
  call void @llvm.memcpy.p0.p0.i64(ptr align 8 %8, ptr align 8 %5, i64 16, i1 false)
  %17 = getelementptr inbounds nuw { ptr, i64 }, ptr %8, i32 0, i32 0
  %18 = load ptr, ptr %17, align 8
  %19 = getelementptr inbounds nuw { ptr, i64 }, ptr %8, i32 0, i32 1
  %20 = load i64, ptr %19, align 8
  %21 = call ptr @_ZN4llvm9StringMapIjNS_15MallocAllocatorEE4findENS_9StringRefE(ptr noundef nonnull align 8 dereferenceable(24) %16, ptr %18, i64 %20)
  %22 = getelementptr inbounds nuw %"class.llvm::StringMapIterator", ptr %7, i32 0, i32 0
  %23 = getelementptr inbounds nuw %"class.llvm::StringMapIterBase", ptr %22, i32 0, i32 0
  store ptr %21, ptr %23, align 8
  %24 = call ptr @_ZNK4llvm20iterator_facade_baseINS_17StringMapIteratorIjEESt20forward_iterator_tagNS_14StringMapEntryIjEElPS5_RS5_EptEv(ptr noundef nonnull align 1 dereferenceable(1) %7)
  %25 = getelementptr inbounds nuw %"class.llvm::iterator_facade_base<llvm::StringMapIterator<unsigned int>, std::forward_iterator_tag, llvm::StringMapEntry<unsigned int>>::PointerProxy", ptr %9, i32 0, i32 0
  store ptr %24, ptr %25, align 8
  %26 = call noundef ptr @_ZNK4llvm20iterator_facade_baseINS_17StringMapIteratorIjEESt20forward_iterator_tagNS_14StringMapEntryIjEElPS5_RS5_E12PointerProxyptEv(ptr noundef nonnull align 8 dereferenceable(8) %9)
  %27 = getelementptr inbounds nuw %"class.llvm::StringMapEntryStorage", ptr %26, i32 0, i32 1
  %28 = load i32, ptr %27, align 8
  store i32 %28, ptr %4, align 4
  br label %29

29:                                               ; preds = %15, %14
  %30 = load i32, ptr %4, align 4
  ret i32 %30
}