; Function Attrs: mustprogress nounwind uwtable
define dso_local noundef i32 @_ZN4llvm15CodeViewContext20getStringTableOffsetENS_9StringRefE(ptr noundef nonnull align 8 dereferenceable(289) %0, ptr %1, i64 %2) local_unnamed_addr #0 align 2 {
  %4 = icmp eq i64 %2, 0
  br i1 %4, label %18, label %5

5:                                                ; preds = %3
  %6 = getelementptr inbounds nuw i8, ptr %0, i64 8
  %7 = tail call noundef i32 @_ZN4llvm13StringMapImpl4hashENS_9StringRefE(ptr %1, i64 %2) #16
  %8 = tail call noundef i32 @_ZNK4llvm13StringMapImpl7FindKeyENS_9StringRefEj(ptr noundef nonnull align 8 dereferenceable(24) %6, ptr %1, i64 %2, i32 noundef %7) #16
  %9 = icmp eq i32 %8, -1
  %10 = load ptr, ptr %6, align 8
  %11 = getelementptr inbounds i8, ptr %0, i64 16
  %12 = load i32, ptr %11, align 8
  %13 = zext i32 %12 to i64
  %14 = sext i32 %8 to i64
  %.sroa.0.0.v.i.i = select i1 %9, i64 %13, i64 %14
  %.sroa.0.0.i.i = getelementptr inbounds ptr, ptr %10, i64 %.sroa.0.0.v.i.i
  %15 = load ptr, ptr %.sroa.0.0.i.i, align 8
  %16 = getelementptr inbounds nuw i8, ptr %15, i64 8
  %17 = load i32, ptr %16, align 8
  br label %18

18:                                               ; preds = %3, %5
  %.0 = phi i32 [ %17, %5 ], [ 0, %3 ]
  ret i32 %.0
}